target datalayout = "e-m:e-p270:32:32-p271:32:32-p272:64:64-i64:64-i128:128-f80:128-n8:16:32:64-S128"
target triple = "x86_64-pc-linux-gnu"

%struct.CVodeMemRec = type { ptr, double, ptr, ptr, i32, i32, double, double, ptr, i32, i32, ptr, ptr, i32, [13 x ptr], ptr, ptr, ptr, ptr, ptr, ptr, ptr, ptr, ptr, i32, i32, double, i32, i32, i32, i32, i32, double, double, double, double, double, double, double, double, [14 x double], [6 x double], [13 x double], double, double, double, double, double, double, double, i32, double, i32, i64, i32, i32, i32, double, double, double, double, double, double, double, double, double, double, double, double, i64, i32, i64, i64, i64, i64, i64, i64, i64, i32, double, double, double, i64, i64, i64, i64, ptr, i32, ptr, i32, ptr, ptr, ptr, ptr, ptr, i64, double, i32, i64, double, double, double, i32, double, i32, i32, i32, i32, i32, ptr, i64, i32, [6 x [4 x double]], i32, i64, ptr, i32, ptr, ptr, double, double, double, ptr, ptr, ptr, double, double, i32, i32, i64, ptr, i32, ptr, i32, i32, [13 x double], [13 x double], [13 x ptr], i32 }

@.str = private unnamed_addr constant [116 x i8] c"generated/home/dtcxzyw/WorkSpace/Projects/compilers/llvm-opt-benchmark/bench/sundials/sundials/src/cvode/cvode_io.c\00", align 1
@.str.1 = private unnamed_addr constant [26 x i8] c"cvode_mem = NULL illegal.\00", align 1
@__func__.CVodeSetEtaFixedStepBounds = private unnamed_addr constant [27 x i8] c"CVodeSetEtaFixedStepBounds\00", align 1

; Function Attrs: nounwind uwtable
define i32 @CVodeSetEtaFixedStepBounds(ptr noundef %0, double noundef %1, double noundef %2) #0 {
  %4 = alloca i32, align 4
  %5 = alloca ptr, align 8
  %6 = alloca double, align 8
  %7 = alloca double, align 8
  %8 = alloca ptr, align 8
  store ptr %0, ptr %5, align 8
  store double %1, ptr %6, align 8
  store double %2, ptr %7, align 8
  %9 = load ptr, ptr %5, align 8
  %10 = icmp eq ptr %9, null
  br i1 %10, label %11, label %12

11:                                               ; preds = %3
  call void (ptr, i32, i32, ptr, ptr, ptr, ...) @cvProcessError(ptr noundef null, i32 noundef -21, i32 noundef 394, ptr noundef @__func__.CVodeSetEtaFixedStepBounds, ptr noundef @.str, ptr noundef @.str.1)
  store i32 -21, ptr %4, align 4
  br label %37

12:                                               ; preds = %3
  %13 = load ptr, ptr %5, align 8
  store ptr %13, ptr %8, align 8
  %14 = load double, ptr %6, align 8
  %15 = fcmp olt double %14, 0.000000e+00
  br i1 %15, label %19, label %16

16:                                               ; preds = %12
  %17 = load double, ptr %6, align 8
  %18 = fcmp oge double %17, 1.000000e+00
  br i1 %18, label %19, label %22

19:                                               ; preds = %16, %12
  %20 = load ptr, ptr %8, align 8
  %21 = getelementptr inbounds %struct.CVodeMemRec, ptr %20, i32 0, i32 60
  store double 0.000000e+00, ptr %21, align 8
  br label %26

22:                                               ; preds = %16
  %23 = load double, ptr %6, align 8
  %24 = load ptr, ptr %8, align 8
  %25 = getelementptr inbounds %struct.CVodeMemRec, ptr %24, i32 0, i32 60
  store double %23, ptr %25, align 8
  br label %26

26:                                               ; preds = %22, %19
  %27 = load double, ptr %7, align 8
  %28 = fcmp ole double %27, 1.000000e+00
  br i1 %28, label %29, label %32

29:                                               ; preds = %26
  %30 = load ptr, ptr %8, align 8
  %31 = getelementptr inbounds %struct.CVodeMemRec, ptr %30, i32 0, i32 61
  store double 1.500000e+00, ptr %31, align 8
  br label %36

32:                                               ; preds = %26
  %33 = load double, ptr %7, align 8
  %34 = load ptr, ptr %8, align 8
  %35 = getelementptr inbounds %struct.CVodeMemRec, ptr %34, i32 0, i32 61
  store double %33, ptr %35, align 8
  br label %36

36:                                               ; preds = %32, %29
  store i32 0, ptr %4, align 4
  br label %37

37:                                               ; preds = %36, %11
  %38 = load i32, ptr %4, align 4
  ret i32 %38
}