; Function Attrs: nounwind uwtable
define range(i32 -21, 1) i32 @CVodeSetEtaFixedStepBounds(ptr noundef writeonly %0, double noundef %1, double noundef %2) local_unnamed_addr #0 {
  %4 = icmp eq ptr %0, null
  br i1 %4, label %5, label %6

5:                                                ; preds = %3
  tail call void (ptr, i32, i32, ptr, ptr, ptr, ...) @cvProcessError(ptr noundef null, i32 noundef -21, i32 noundef 394, ptr noundef nonnull @__func__.CVodeSetEtaFixedStepBounds, ptr noundef nonnull @.str, ptr noundef nonnull @.str.1) #7
  br label %14

6:                                                ; preds = %3
  %7 = fcmp olt double %1, 0.000000e+00
  %8 = fcmp oge double %1, 1.000000e+00
  %or.cond = or i1 %7, %8
  %.sink = select i1 %or.cond, double 0.000000e+00, double %1
  %9 = getelementptr inbounds nuw i8, ptr %0, i64 768
  store double %.sink, ptr %9, align 8
  %10 = fcmp ugt double %2, 1.000000e+00
  %11 = getelementptr inbounds nuw i8, ptr %0, i64 776
  br i1 %10, label %13, label %12

12:                                               ; preds = %6
  store double 1.500000e+00, ptr %11, align 8
  br label %14

13:                                               ; preds = %6
  store double %2, ptr %11, align 8
  br label %14

14:                                               ; preds = %12, %13, %5
  %.0 = phi i32 [ -21, %5 ], [ 0, %13 ], [ 0, %12 ]
  ret i32 %.0
}